#include <math.h>
#include <stdio.h>
#include <stdlib.h>
#include <string.h>

void read(int a[],int m,int b[],int n)
{
	int i;
	for(i=0;i<m;i++)
		scanf("%d",&a[i]);
	for(i=0;i<n;i++)
		scanf("%d",&b[i]);
}
void order(int a[],int n)
{
	int i,j,aaa;
	for(i=0;i<n-1;i++)
	{
		for(j=0;j<n-i-1;j++)
		{
			if(a[j]>a[j+1])
			{
				aaa=a[j];
			    a[j]=a[j+1];
				a[j+1]=aaa;
			}
		}
	}
	
}
void combine(int a[],int m,int b[],int n)
{
	int i;
	for(i=0;i<m;i++)
		printf("%d ",a[i]);
	for(i=0;i<n-1;i++)
		printf("%d ",b[i]);
	printf("%d",b[n-1]);
}
void main()
{
	int a[100],b[100],m,n;
	scanf("%d%d",&m,&n);
	read(a,m,b,n);
	order(a,m);
	order(b,n);
	combine(a,m,b,n);
}